target datalayout = "e-m:e-p270:32:32-p271:32:32-p272:64:64-i64:64-i128:128-f80:128-n8:16:32:64-S128"
target triple = "x86_64-pc-linux-gnu"

; Function Attrs: nounwind uwtable
define i64 @CRYPTO_nistcts128_encrypt_block(ptr noundef %0, ptr noundef %1, i64 noundef %2, ptr noundef %3, ptr noundef %4, ptr noundef %5) #0 {
  %7 = alloca i64, align 8
  %8 = alloca ptr, align 8
  %9 = alloca ptr, align 8
  %10 = alloca i64, align 8
  %11 = alloca ptr, align 8
  %12 = alloca ptr, align 8
  %13 = alloca ptr, align 8
  %14 = alloca i64, align 8
  %15 = alloca i64, align 8
  %16 = alloca i32, align 4
  store ptr %0, ptr %8, align 8, !tbaa !3
  store ptr %1, ptr %9, align 8, !tbaa !3
  store i64 %2, ptr %10, align 8, !tbaa !8
  store ptr %3, ptr %11, align 8, !tbaa !10
  store ptr %4, ptr %12, align 8, !tbaa !3
  store ptr %5, ptr %13, align 8, !tbaa !10
  call void @llvm.lifetime.start.p0(i64 8, ptr %14) #5
  call void @llvm.lifetime.start.p0(i64 8, ptr %15) #5
  %17 = load i64, ptr %10, align 8, !tbaa !8
  %18 = icmp ult i64 %17, 16
  br i1 %18, label %19, label %20

19:                                               ; preds = %6
  store i64 0, ptr %7, align 8
  store i32 1, ptr %16, align 4
  br label %76

20:                                               ; preds = %6
  %21 = load i64, ptr %10, align 8, !tbaa !8
  %22 = urem i64 %21, 16
  store i64 %22, ptr %14, align 8, !tbaa !8
  %23 = load i64, ptr %14, align 8, !tbaa !8
  %24 = load i64, ptr %10, align 8, !tbaa !8
  %25 = sub i64 %24, %23
  store i64 %25, ptr %10, align 8, !tbaa !8
  %26 = load ptr, ptr %8, align 8, !tbaa !3
  %27 = load ptr, ptr %9, align 8, !tbaa !3
  %28 = load i64, ptr %10, align 8, !tbaa !8
  %29 = load ptr, ptr %11, align 8, !tbaa !10
  %30 = load ptr, ptr %12, align 8, !tbaa !3
  %31 = load ptr, ptr %13, align 8, !tbaa !10
  call void @CRYPTO_cbc128_encrypt(ptr noundef %26, ptr noundef %27, i64 noundef %28, ptr noundef %29, ptr noundef %30, ptr noundef %31)
  %32 = load i64, ptr %14, align 8, !tbaa !8
  %33 = icmp eq i64 %32, 0
  br i1 %33, label %34, label %36

34:                                               ; preds = %20
  %35 = load i64, ptr %10, align 8, !tbaa !8
  store i64 %35, ptr %7, align 8
  store i32 1, ptr %16, align 4
  br label %76

36:                                               ; preds = %20
  %37 = load i64, ptr %10, align 8, !tbaa !8
  %38 = load ptr, ptr %8, align 8, !tbaa !3
  %39 = getelementptr inbounds nuw i8, ptr %38, i64 %37
  store ptr %39, ptr %8, align 8, !tbaa !3
  %40 = load i64, ptr %10, align 8, !tbaa !8
  %41 = load ptr, ptr %9, align 8, !tbaa !3
  %42 = getelementptr inbounds nuw i8, ptr %41, i64 %40
  store ptr %42, ptr %9, align 8, !tbaa !3
  store i64 0, ptr %15, align 8, !tbaa !8
  br label %43

43:                                               ; preds = %60, %36
  %44 = load i64, ptr %15, align 8, !tbaa !8
  %45 = load i64, ptr %14, align 8, !tbaa !8
  %46 = icmp ult i64 %44, %45
  br i1 %46, label %47, label %63

47:                                               ; preds = %43
  %48 = load ptr, ptr %8, align 8, !tbaa !3
  %49 = load i64, ptr %15, align 8, !tbaa !8
  %50 = getelementptr inbounds nuw i8, ptr %48, i64 %49
  %51 = load i8, ptr %50, align 1, !tbaa !11
  %52 = zext i8 %51 to i32
  %53 = load ptr, ptr %12, align 8, !tbaa !3
  %54 = load i64, ptr %15, align 8, !tbaa !8
  %55 = getelementptr inbounds nuw i8, ptr %53, i64 %54
  %56 = load i8, ptr %55, align 1, !tbaa !11
  %57 = zext i8 %56 to i32
  %58 = xor i32 %57, %52
  %59 = trunc i32 %58 to i8
  store i8 %59, ptr %55, align 1, !tbaa !11
  br label %60

60:                                               ; preds = %47
  %61 = load i64, ptr %15, align 8, !tbaa !8
  %62 = add i64 %61, 1
  store i64 %62, ptr %15, align 8, !tbaa !8
  br label %43, !llvm.loop !14

63:                                               ; preds = %43
  %64 = load ptr, ptr %13, align 8, !tbaa !10
  %65 = load ptr, ptr %12, align 8, !tbaa !3
  %66 = load ptr, ptr %12, align 8, !tbaa !3
  %67 = load ptr, ptr %11, align 8, !tbaa !10
  call void %64(ptr noundef %65, ptr noundef %66, ptr noundef %67)
  %68 = load ptr, ptr %9, align 8, !tbaa !3
  %69 = getelementptr inbounds i8, ptr %68, i64 -16
  %70 = load i64, ptr %14, align 8, !tbaa !8
  %71 = getelementptr inbounds nuw i8, ptr %69, i64 %70
  %72 = load ptr, ptr %12, align 8, !tbaa !3
  call void @llvm.memcpy.p0.p0.i64(ptr align 1 %71, ptr align 1 %72, i64 16, i1 false)
  %73 = load i64, ptr %10, align 8, !tbaa !8
  %74 = load i64, ptr %14, align 8, !tbaa !8
  %75 = add i64 %73, %74
  store i64 %75, ptr %7, align 8
  store i32 1, ptr %16, align 4
  br label %76

76:                                               ; preds = %63, %34, %19
  call void @llvm.lifetime.end.p0(i64 8, ptr %15) #5
  call void @llvm.lifetime.end.p0(i64 8, ptr %14) #5
  %77 = load i64, ptr %7, align 8
  ret i64 %77
}