; Function Attrs: nounwind uwtable
define noundef i64 @CRYPTO_nistcts128_encrypt_block(ptr noundef %0, ptr noundef %1, i64 noundef %2, ptr noundef %3, ptr noundef %4, ptr noundef %5) local_unnamed_addr #0 {
  %7 = icmp ult i64 %2, 16
  br i1 %7, label %25, label %8

8:                                                ; preds = %6
  %9 = and i64 %2, 15
  %10 = and i64 %2, -16
  tail call void @CRYPTO_cbc128_encrypt(ptr noundef %0, ptr noundef %1, i64 noundef %10, ptr noundef %3, ptr noundef %4, ptr noundef %5) #5
  %11 = icmp eq i64 %9, 0
  br i1 %11, label %25, label %12

12:                                               ; preds = %8
  %13 = getelementptr inbounds nuw i8, ptr %0, i64 %10
  br label %14

14:                                               ; preds = %12, %14
  %.035 = phi i64 [ 0, %12 ], [ %20, %14 ]
  %15 = getelementptr inbounds nuw i8, ptr %13, i64 %.035
  %16 = load i8, ptr %15, align 1, !tbaa !3
  %17 = getelementptr inbounds nuw i8, ptr %4, i64 %.035
  %18 = load i8, ptr %17, align 1, !tbaa !3
  %19 = xor i8 %18, %16
  store i8 %19, ptr %17, align 1, !tbaa !3
  %20 = add nuw nsw i64 %.035, 1
  %exitcond.not = icmp eq i64 %20, %9
  br i1 %exitcond.not, label %21, label %14, !llvm.loop !8

21:                                               ; preds = %14
  %22 = getelementptr inbounds nuw i8, ptr %1, i64 %10
  tail call void %5(ptr noundef nonnull %4, ptr noundef nonnull %4, ptr noundef %3) #5
  %23 = getelementptr inbounds i8, ptr %22, i64 -16
  %24 = getelementptr inbounds nuw i8, ptr %23, i64 %9
  tail call void @llvm.memcpy.p0.p0.i64(ptr noundef nonnull align 1 dereferenceable(16) %24, ptr noundef nonnull align 1 dereferenceable(16) %4, i64 16, i1 false)
  br label %25

25:                                               ; preds = %8, %6, %21
  %.032 = phi i64 [ %2, %21 ], [ 0, %6 ], [ %10, %8 ]
  ret i64 %.032
}